; Function Attrs: nofree norecurse nosync nounwind memory(read, inaccessiblemem: none) uwtable
define range(i32 0, -2147483648) i32 @Acec_CreateBoxMaxRank(ptr noundef readonly captures(none) %0) local_unnamed_addr #7 {
  %2 = getelementptr i8, ptr %0, i64 4
  %.val = load i32, ptr %2, align 4
  %3 = icmp sgt i32 %.val, 1
  br i1 %3, label %.lr.ph, label %.critedge

.lr.ph:                                           ; preds = %1
  %4 = getelementptr i8, ptr %0, i64 8
  %.val12 = load ptr, ptr %4, align 8
  %5 = zext nneg i32 %.val to i64
  br label %6

6:                                                ; preds = %.lr.ph, %6
  %indvars.iv = phi i64 [ 0, %.lr.ph ], [ %indvars.iv.next, %6 ]
  %.014 = phi i32 [ 0, %.lr.ph ], [ %10, %6 ]
  %7 = or disjoint i64 %indvars.iv, 1
  %8 = getelementptr inbounds nuw i32, ptr %.val12, i64 %7
  %9 = load i32, ptr %8, align 4
  %10 = tail call noundef i32 @llvm.smax.i32(i32 %.014, i32 %9)
  %indvars.iv.next = add nuw nsw i64 %indvars.iv, 2
  %11 = or disjoint i64 %indvars.iv.next, 1
  %12 = icmp samesign ult i64 %11, %5
  br i1 %12, label %6, label %.critedge, !llvm.loop !50

.critedge:                                        ; preds = %6, %1
  %.0.lcssa = phi i32 [ 0, %1 ], [ %10, %6 ]
  ret i32 %.0.lcssa
}